; Function Attrs: nofree norecurse nosync nounwind memory(readwrite, inaccessiblemem: none) uwtable
define void @dt_dev_pixelpipe_invalidate_cacheline(ptr noundef readonly captures(none) %0, ptr noundef readnone %1) local_unnamed_addr #8 {
  %3 = load i32, ptr %0, align 8, !tbaa !6
  %4 = icmp sgt i32 %3, 2
  br i1 %4, label %.lr.ph, label %._crit_edge

.lr.ph:                                           ; preds = %2
  %5 = getelementptr inbounds nuw i8, ptr %0, i64 24
  %6 = load ptr, ptr %5, align 8, !tbaa !19
  %7 = getelementptr i8, ptr %0, i64 48
  %8 = getelementptr i8, ptr %0, i64 64
  br label %9

._crit_edge:                                      ; preds = %17, %2
  ret void

9:                                                ; preds = %.lr.ph, %17
  %10 = phi i32 [ %3, %.lr.ph ], [ %18, %17 ]
  %indvars.iv = phi i64 [ 2, %.lr.ph ], [ %indvars.iv.next, %17 ]
  %11 = getelementptr inbounds nuw ptr, ptr %6, i64 %indvars.iv
  %12 = load ptr, ptr %11, align 8, !tbaa !27
  %13 = icmp eq ptr %12, %1
  br i1 %13, label %14, label %17

14:                                               ; preds = %9
  %.val = load ptr, ptr %7, align 8, !tbaa !22
  %.val8 = load ptr, ptr %8, align 8, !tbaa !24
  %15 = getelementptr inbounds nuw i64, ptr %.val, i64 %indvars.iv
  store i64 0, ptr %15, align 8, !tbaa !25
  %16 = getelementptr inbounds nuw i32, ptr %.val8, i64 %indvars.iv
  store i32 0, ptr %16, align 4, !tbaa !26
  %.pre = load i32, ptr %0, align 8, !tbaa !6
  br label %17

17:                                               ; preds = %9, %14
  %18 = phi i32 [ %10, %9 ], [ %.pre, %14 ]
  %indvars.iv.next = add nuw nsw i64 %indvars.iv, 1
  %19 = sext i32 %18 to i64
  %20 = icmp slt i64 %indvars.iv.next, %19
  br i1 %20, label %9, label %._crit_edge
}